target datalayout = "e-m:e-p270:32:32-p271:32:32-p272:64:64-i64:64-i128:128-f80:128-n8:16:32:64-S128"
target triple = "x86_64-pc-linux-gnu"

%struct.SDL_TrayEntry = type { ptr, ptr, i8, i32, ptr, ptr, ptr }

@gtk_check_menu_item_get_active = internal global ptr null, align 8

; Function Attrs: nounwind uwtable
define hidden zeroext i1 @SDL_GetTrayEntryChecked_REAL(ptr noundef %0) #0 {
  %2 = alloca i1, align 1
  %3 = alloca ptr, align 8
  store ptr %0, ptr %3, align 8
  %4 = load ptr, ptr %3, align 8
  %5 = icmp ne ptr %4, null
  br i1 %5, label %6, label %12

6:                                                ; preds = %1
  %7 = load ptr, ptr %3, align 8
  %8 = getelementptr inbounds nuw %struct.SDL_TrayEntry, ptr %7, i32 0, i32 3
  %9 = load i32, ptr %8, align 4
  %10 = and i32 %9, 2
  %11 = icmp ne i32 %10, 0
  br i1 %11, label %13, label %12

12:                                               ; preds = %6, %1
  store i1 false, ptr %2, align 1
  br label %20

13:                                               ; preds = %6
  %14 = load ptr, ptr @gtk_check_menu_item_get_active, align 8
  %15 = load ptr, ptr %3, align 8
  %16 = getelementptr inbounds nuw %struct.SDL_TrayEntry, ptr %15, i32 0, i32 1
  %17 = load ptr, ptr %16, align 8
  %18 = call i32 %14(ptr noundef %17)
  %19 = icmp ne i32 %18, 0
  store i1 %19, ptr %2, align 1
  br label %20

20:                                               ; preds = %13, %12
  %21 = load i1, ptr %2, align 1
  ret i1 %21
}