; Function Attrs: nounwind uwtable
define hidden zeroext i1 @SDL_GetTrayEntryChecked_REAL(ptr noundef readonly captures(address_is_null) %0) local_unnamed_addr #0 {
  %.not = icmp eq ptr %0, null
  br i1 %.not, label %12, label %2

2:                                                ; preds = %1
  %3 = getelementptr inbounds nuw i8, ptr %0, i64 20
  %4 = load i32, ptr %3, align 4
  %5 = and i32 %4, 2
  %.not5 = icmp eq i32 %5, 0
  br i1 %.not5, label %12, label %6

6:                                                ; preds = %2
  %7 = load ptr, ptr @gtk_check_menu_item_get_active, align 8
  %8 = getelementptr inbounds nuw i8, ptr %0, i64 8
  %9 = load ptr, ptr %8, align 8
  %10 = tail call i32 %7(ptr noundef %9) #10
  %11 = icmp ne i32 %10, 0
  br label %12

12:                                               ; preds = %1, %2, %6
  %.0 = phi i1 [ %11, %6 ], [ false, %2 ], [ false, %1 ]
  ret i1 %.0
}